target datalayout = "e-m:e-p270:32:32-p271:32:32-p272:64:64-i64:64-i128:128-f80:128-n8:16:32:64-S128"
target triple = "x86_64-pc-linux-gnu"

%struct._queues = type { ptr, ptr, i64, i64 }
%struct._queue = type { i64, ptr, i32, %struct._queueitems, %struct.anon.0 }
%struct._queueitems = type { i64, i64, ptr, ptr }
%struct.anon.0 = type { i32, i32 }
%struct._queueref = type { ptr, i64, i64, ptr }
%struct._queueitem = type { i64, ptr, i32, i32, ptr }

; Function Attrs: nounwind uwtable
define internal i32 @_release_xid_data(ptr noundef %0, i32 noundef %1) #0 {
  %3 = alloca ptr, align 8
  %4 = alloca i32, align 4
  %5 = alloca i32, align 4
  %6 = alloca ptr, align 8
  %7 = alloca i32, align 4
  store ptr %0, ptr %3, align 8, !tbaa !66
  store i32 %1, ptr %4, align 4, !tbaa !9
  call void @llvm.lifetime.start.p0(i64 4, ptr %5) #8
  %8 = load i32, ptr %4, align 4, !tbaa !9
  %9 = and i32 %8, 1
  store i32 %9, ptr %5, align 4, !tbaa !9
  call void @llvm.lifetime.start.p0(i64 8, ptr %6) #8
  %10 = load i32, ptr %5, align 4, !tbaa !9
  %11 = icmp ne i32 %10, 0
  br i1 %11, label %12, label %14

12:                                               ; preds = %2
  %13 = call ptr @PyErr_GetRaisedException()
  store ptr %13, ptr %6, align 8, !tbaa !3
  br label %14

14:                                               ; preds = %12, %2
  call void @llvm.lifetime.start.p0(i64 4, ptr %7) #8
  %15 = load i32, ptr %4, align 4, !tbaa !9
  %16 = and i32 %15, 2
  %17 = icmp ne i32 %16, 0
  br i1 %17, label %18, label %21

18:                                               ; preds = %14
  %19 = load ptr, ptr %3, align 8, !tbaa !66
  %20 = call i32 @_PyXIData_ReleaseAndRawFree(ptr noundef %19)
  store i32 %20, ptr %7, align 4, !tbaa !9
  br label %24

21:                                               ; preds = %14
  %22 = load ptr, ptr %3, align 8, !tbaa !66
  %23 = call i32 @_PyXIData_Release(ptr noundef %22)
  store i32 %23, ptr %7, align 4, !tbaa !9
  br label %24

24:                                               ; preds = %21, %18
  %25 = load i32, ptr %7, align 4, !tbaa !9
  %26 = icmp slt i32 %25, 0
  br i1 %26, label %27, label %32

27:                                               ; preds = %24
  %28 = load i32, ptr %5, align 4, !tbaa !9
  %29 = icmp ne i32 %28, 0
  br i1 %29, label %30, label %31

30:                                               ; preds = %27
  call void @PyErr_Clear()
  br label %31

31:                                               ; preds = %30, %27
  br label %32

32:                                               ; preds = %31, %24
  %33 = load i32, ptr %4, align 4, !tbaa !9
  %34 = and i32 %33, 2
  %35 = icmp ne i32 %34, 0
  br i1 %35, label %36, label %37

36:                                               ; preds = %32
  br label %37

37:                                               ; preds = %36, %32
  %38 = load i32, ptr %5, align 4, !tbaa !9
  %39 = icmp ne i32 %38, 0
  br i1 %39, label %40, label %42

40:                                               ; preds = %37
  %41 = load ptr, ptr %6, align 8, !tbaa !3
  call void @PyErr_SetRaisedException(ptr noundef %41)
  br label %42

42:                                               ; preds = %40, %37
  %43 = load i32, ptr %7, align 4, !tbaa !9
  call void @llvm.lifetime.end.p0(i64 4, ptr %7) #8
  call void @llvm.lifetime.end.p0(i64 8, ptr %6) #8
  call void @llvm.lifetime.end.p0(i64 4, ptr %5) #8
  ret i32 %43
}

; Function Attrs: nounwind uwtable
define internal void @_queueitem_clear_data(ptr noundef %0) #0 {
  %2 = alloca ptr, align 8
  store ptr %0, ptr %2, align 8, !tbaa !48
  %3 = load ptr, ptr %2, align 8, !tbaa !48
  %4 = getelementptr inbounds nuw %struct._queueitem, ptr %3, i32 0, i32 1
  %5 = load ptr, ptr %4, align 8, !tbaa !65
  %6 = icmp eq ptr %5, null
  br i1 %6, label %7, label %8

7:                                                ; preds = %1
  br label %15

8:                                                ; preds = %1
  %9 = load ptr, ptr %2, align 8, !tbaa !48
  %10 = getelementptr inbounds nuw %struct._queueitem, ptr %9, i32 0, i32 1
  %11 = load ptr, ptr %10, align 8, !tbaa !65
  %12 = call i32 @_release_xid_data(ptr noundef %11, i32 noundef 0)
  %13 = load ptr, ptr %2, align 8, !tbaa !48
  %14 = getelementptr inbounds nuw %struct._queueitem, ptr %13, i32 0, i32 1
  store ptr null, ptr %14, align 8, !tbaa !65
  br label %15

15:                                               ; preds = %8, %7
  ret void
}

; Function Attrs: nounwind uwtable
define internal void @_queueitem_clear(ptr noundef %0) #0 {
  %2 = alloca ptr, align 8
  store ptr %0, ptr %2, align 8, !tbaa !48
  %3 = load ptr, ptr %2, align 8, !tbaa !48
  %4 = getelementptr inbounds nuw %struct._queueitem, ptr %3, i32 0, i32 4
  store ptr null, ptr %4, align 8, !tbaa !61
  %5 = load ptr, ptr %2, align 8, !tbaa !48
  call void @_queueitem_clear_data(ptr noundef %5)
  ret void
}

; Function Attrs: nounwind uwtable
define internal void @_queueitem_free(ptr noundef %0) #0 {
  %2 = alloca ptr, align 8
  store ptr %0, ptr %2, align 8, !tbaa !48
  %3 = load ptr, ptr %2, align 8, !tbaa !48
  call void @_queueitem_clear(ptr noundef %3)
  %4 = load ptr, ptr %2, align 8, !tbaa !48
  call void @PyMem_RawFree(ptr noundef %4)
  ret void
}

; Function Attrs: nounwind uwtable
define internal void @_queueitem_free_all(ptr noundef %0) #0 {
  %2 = alloca ptr, align 8
  %3 = alloca ptr, align 8
  store ptr %0, ptr %2, align 8, !tbaa !48
  br label %4

4:                                                ; preds = %7, %1
  %5 = load ptr, ptr %2, align 8, !tbaa !48
  %6 = icmp ne ptr %5, null
  br i1 %6, label %7, label %13

7:                                                ; preds = %4
  call void @llvm.lifetime.start.p0(i64 8, ptr %3) #8
  %8 = load ptr, ptr %2, align 8, !tbaa !48
  store ptr %8, ptr %3, align 8, !tbaa !48
  %9 = load ptr, ptr %2, align 8, !tbaa !48
  %10 = getelementptr inbounds nuw %struct._queueitem, ptr %9, i32 0, i32 4
  %11 = load ptr, ptr %10, align 8, !tbaa !61
  store ptr %11, ptr %2, align 8, !tbaa !48
  %12 = load ptr, ptr %3, align 8, !tbaa !48
  call void @_queueitem_free(ptr noundef %12)
  call void @llvm.lifetime.end.p0(i64 8, ptr %3) #8
  br label %4, !llvm.loop !64

13:                                               ; preds = %4
  ret void
}

; Function Attrs: nounwind uwtable
define internal void @_queue_clear(ptr noundef %0) #0 {
  %2 = alloca ptr, align 8
  %3 = alloca %struct._queue, align 8
  store ptr %0, ptr %2, align 8, !tbaa !26
  %4 = load ptr, ptr %2, align 8, !tbaa !26
  %5 = getelementptr inbounds nuw %struct._queue, ptr %4, i32 0, i32 3
  %6 = getelementptr inbounds nuw %struct._queueitems, ptr %5, i32 0, i32 2
  %7 = load ptr, ptr %6, align 8, !tbaa !59
  call void @_queueitem_free_all(ptr noundef %7)
  %8 = load ptr, ptr %2, align 8, !tbaa !26
  %9 = getelementptr inbounds nuw %struct._queue, ptr %8, i32 0, i32 1
  %10 = load ptr, ptr %9, align 8, !tbaa !42
  call void @PyThread_free_lock(ptr noundef %10)
  %11 = load ptr, ptr %2, align 8, !tbaa !26
  call void @llvm.memset.p0.i64(ptr align 8 %3, i8 0, i64 64, i1 false)
  call void @llvm.memcpy.p0.p0.i64(ptr align 8 %11, ptr align 8 %3, i64 64, i1 false), !tbaa.struct !47
  ret void
}

; Function Attrs: nounwind uwtable
define internal void @_queues_remove_ref(ptr noundef %0, ptr noundef %1, ptr noundef %2, ptr noundef %3) #0 {
  %5 = alloca ptr, align 8
  %6 = alloca ptr, align 8
  %7 = alloca ptr, align 8
  %8 = alloca ptr, align 8
  store ptr %0, ptr %5, align 8, !tbaa !39
  store ptr %1, ptr %6, align 8, !tbaa !50
  store ptr %2, ptr %7, align 8, !tbaa !50
  store ptr %3, ptr %8, align 8, !tbaa !74
  %9 = load ptr, ptr %6, align 8, !tbaa !50
  %10 = load ptr, ptr %5, align 8, !tbaa !39
  %11 = getelementptr inbounds nuw %struct._queues, ptr %10, i32 0, i32 1
  %12 = load ptr, ptr %11, align 8, !tbaa !57
  %13 = icmp eq ptr %9, %12
  br i1 %13, label %14, label %20

14:                                               ; preds = %4
  %15 = load ptr, ptr %6, align 8, !tbaa !50
  %16 = getelementptr inbounds nuw %struct._queueref, ptr %15, i32 0, i32 0
  %17 = load ptr, ptr %16, align 8, !tbaa !51
  %18 = load ptr, ptr %5, align 8, !tbaa !39
  %19 = getelementptr inbounds nuw %struct._queues, ptr %18, i32 0, i32 1
  store ptr %17, ptr %19, align 8, !tbaa !57
  br label %26

20:                                               ; preds = %4
  %21 = load ptr, ptr %6, align 8, !tbaa !50
  %22 = getelementptr inbounds nuw %struct._queueref, ptr %21, i32 0, i32 0
  %23 = load ptr, ptr %22, align 8, !tbaa !51
  %24 = load ptr, ptr %7, align 8, !tbaa !50
  %25 = getelementptr inbounds nuw %struct._queueref, ptr %24, i32 0, i32 0
  store ptr %23, ptr %25, align 8, !tbaa !51
  br label %26

26:                                               ; preds = %20, %14
  %27 = load ptr, ptr %6, align 8, !tbaa !50
  %28 = getelementptr inbounds nuw %struct._queueref, ptr %27, i32 0, i32 0
  store ptr null, ptr %28, align 8, !tbaa !51
  %29 = load ptr, ptr %5, align 8, !tbaa !39
  %30 = getelementptr inbounds nuw %struct._queues, ptr %29, i32 0, i32 2
  %31 = load i64, ptr %30, align 8, !tbaa !58
  %32 = sub i64 %31, 1
  store i64 %32, ptr %30, align 8, !tbaa !58
  %33 = load ptr, ptr %6, align 8, !tbaa !50
  %34 = getelementptr inbounds nuw %struct._queueref, ptr %33, i32 0, i32 3
  %35 = load ptr, ptr %34, align 8, !tbaa !55
  %36 = load ptr, ptr %8, align 8, !tbaa !74
  store ptr %35, ptr %36, align 8, !tbaa !26
  %37 = load ptr, ptr %6, align 8, !tbaa !50
  %38 = getelementptr inbounds nuw %struct._queueref, ptr %37, i32 0, i32 3
  store ptr null, ptr %38, align 8, !tbaa !55
  %39 = load ptr, ptr %6, align 8, !tbaa !50
  call void @PyMem_RawFree(ptr noundef %39)
  ret void
}

; Function Attrs: nounwind uwtable
define internal ptr @_queuerefs_find(ptr noundef %0, i64 noundef %1, ptr noundef %2) #0 {
  %4 = alloca ptr, align 8
  %5 = alloca i64, align 8
  %6 = alloca ptr, align 8
  %7 = alloca ptr, align 8
  %8 = alloca ptr, align 8
  store ptr %0, ptr %4, align 8, !tbaa !50
  store i64 %1, ptr %5, align 8, !tbaa !11
  store ptr %2, ptr %6, align 8, !tbaa !77
  call void @llvm.lifetime.start.p0(i64 8, ptr %7) #8
  store ptr null, ptr %7, align 8, !tbaa !50
  call void @llvm.lifetime.start.p0(i64 8, ptr %8) #8
  %9 = load ptr, ptr %4, align 8, !tbaa !50
  store ptr %9, ptr %8, align 8, !tbaa !50
  br label %10

10:                                               ; preds = %20, %3
  %11 = load ptr, ptr %8, align 8, !tbaa !50
  %12 = icmp ne ptr %11, null
  br i1 %12, label %13, label %25

13:                                               ; preds = %10
  %14 = load ptr, ptr %8, align 8, !tbaa !50
  %15 = getelementptr inbounds nuw %struct._queueref, ptr %14, i32 0, i32 1
  %16 = load i64, ptr %15, align 8, !tbaa !53
  %17 = load i64, ptr %5, align 8, !tbaa !11
  %18 = icmp eq i64 %16, %17
  br i1 %18, label %19, label %20

19:                                               ; preds = %13
  br label %25

20:                                               ; preds = %13
  %21 = load ptr, ptr %8, align 8, !tbaa !50
  store ptr %21, ptr %7, align 8, !tbaa !50
  %22 = load ptr, ptr %8, align 8, !tbaa !50
  %23 = getelementptr inbounds nuw %struct._queueref, ptr %22, i32 0, i32 0
  %24 = load ptr, ptr %23, align 8, !tbaa !51
  store ptr %24, ptr %8, align 8, !tbaa !50
  br label %10, !llvm.loop !79

25:                                               ; preds = %19, %10
  %26 = load ptr, ptr %6, align 8, !tbaa !77
  %27 = icmp ne ptr %26, null
  br i1 %27, label %28, label %31

28:                                               ; preds = %25
  %29 = load ptr, ptr %7, align 8, !tbaa !50
  %30 = load ptr, ptr %6, align 8, !tbaa !77
  store ptr %29, ptr %30, align 8, !tbaa !50
  br label %31

31:                                               ; preds = %28, %25
  %32 = load ptr, ptr %8, align 8, !tbaa !50
  call void @llvm.lifetime.end.p0(i64 8, ptr %8) #8
  call void @llvm.lifetime.end.p0(i64 8, ptr %7) #8
  ret ptr %32
}

; Function Attrs: nounwind uwtable
define internal void @_queue_free(ptr noundef %0) #0 {
  %2 = alloca ptr, align 8
  store ptr %0, ptr %2, align 8, !tbaa !26
  %3 = load ptr, ptr %2, align 8, !tbaa !26
  call void @_queue_clear(ptr noundef %3)
  %4 = load ptr, ptr %2, align 8, !tbaa !26
  call void @PyMem_RawFree(ptr noundef %4)
  ret void
}

; Function Attrs: nounwind uwtable
define internal void @_queue_kill_and_wait(ptr noundef %0) #0 {
  %2 = alloca ptr, align 8
  store ptr %0, ptr %2, align 8, !tbaa !26
  %3 = load ptr, ptr %2, align 8, !tbaa !26
  %4 = getelementptr inbounds nuw %struct._queue, ptr %3, i32 0, i32 1
  %5 = load ptr, ptr %4, align 8, !tbaa !42
  %6 = call i32 @PyThread_acquire_lock(ptr noundef %5, i32 noundef 1)
  %7 = load ptr, ptr %2, align 8, !tbaa !26
  %8 = getelementptr inbounds nuw %struct._queue, ptr %7, i32 0, i32 2
  store i32 0, ptr %8, align 8, !tbaa !43
  %9 = load ptr, ptr %2, align 8, !tbaa !26
  %10 = getelementptr inbounds nuw %struct._queue, ptr %9, i32 0, i32 1
  %11 = load ptr, ptr %10, align 8, !tbaa !42
  call void @PyThread_release_lock(ptr noundef %11)
  br label %12

12:                                               ; preds = %17, %1
  %13 = load ptr, ptr %2, align 8, !tbaa !26
  %14 = getelementptr inbounds nuw %struct._queue, ptr %13, i32 0, i32 0
  %15 = load i64, ptr %14, align 8, !tbaa !41
  %16 = icmp sgt i64 %15, 0
  br i1 %16, label %17, label %25

17:                                               ; preds = %12
  %18 = load ptr, ptr %2, align 8, !tbaa !26
  %19 = getelementptr inbounds nuw %struct._queue, ptr %18, i32 0, i32 1
  %20 = load ptr, ptr %19, align 8, !tbaa !42
  %21 = call i32 @PyThread_acquire_lock(ptr noundef %20, i32 noundef 1)
  %22 = load ptr, ptr %2, align 8, !tbaa !26
  %23 = getelementptr inbounds nuw %struct._queue, ptr %22, i32 0, i32 1
  %24 = load ptr, ptr %23, align 8, !tbaa !42
  call void @PyThread_release_lock(ptr noundef %24)
  br label %12, !llvm.loop !76

25:                                               ; preds = %12
  ret void
}

; Function Attrs: nounwind uwtable
define internal i32 @_queues_remove(ptr noundef %0, i64 noundef %1, ptr noundef %2) #0 {
  %4 = alloca i32, align 4
  %5 = alloca ptr, align 8
  %6 = alloca i64, align 8
  %7 = alloca ptr, align 8
  %8 = alloca ptr, align 8
  %9 = alloca ptr, align 8
  %10 = alloca i32, align 4
  store ptr %0, ptr %5, align 8, !tbaa !39
  store i64 %1, ptr %6, align 8, !tbaa !11
  store ptr %2, ptr %7, align 8, !tbaa !74
  %11 = load ptr, ptr %5, align 8, !tbaa !39
  %12 = getelementptr inbounds nuw %struct._queues, ptr %11, i32 0, i32 0
  %13 = load ptr, ptr %12, align 8, !tbaa !49
  %14 = call i32 @PyThread_acquire_lock(ptr noundef %13, i32 noundef 1)
  call void @llvm.lifetime.start.p0(i64 8, ptr %8) #8
  store ptr null, ptr %8, align 8, !tbaa !50
  call void @llvm.lifetime.start.p0(i64 8, ptr %9) #8
  %15 = load ptr, ptr %5, align 8, !tbaa !39
  %16 = getelementptr inbounds nuw %struct._queues, ptr %15, i32 0, i32 1
  %17 = load ptr, ptr %16, align 8, !tbaa !57
  %18 = load i64, ptr %6, align 8, !tbaa !11
  %19 = call ptr @_queuerefs_find(ptr noundef %17, i64 noundef %18, ptr noundef %8)
  store ptr %19, ptr %9, align 8, !tbaa !50
  %20 = load ptr, ptr %9, align 8, !tbaa !50
  %21 = icmp eq ptr %20, null
  br i1 %21, label %22, label %26

22:                                               ; preds = %3
  %23 = load ptr, ptr %5, align 8, !tbaa !39
  %24 = getelementptr inbounds nuw %struct._queues, ptr %23, i32 0, i32 0
  %25 = load ptr, ptr %24, align 8, !tbaa !49
  call void @PyThread_release_lock(ptr noundef %25)
  store i32 -14, ptr %4, align 4
  store i32 1, ptr %10, align 4
  br label %34

26:                                               ; preds = %3
  %27 = load ptr, ptr %5, align 8, !tbaa !39
  %28 = load ptr, ptr %9, align 8, !tbaa !50
  %29 = load ptr, ptr %8, align 8, !tbaa !50
  %30 = load ptr, ptr %7, align 8, !tbaa !74
  call void @_queues_remove_ref(ptr noundef %27, ptr noundef %28, ptr noundef %29, ptr noundef %30)
  %31 = load ptr, ptr %5, align 8, !tbaa !39
  %32 = getelementptr inbounds nuw %struct._queues, ptr %31, i32 0, i32 0
  %33 = load ptr, ptr %32, align 8, !tbaa !49
  call void @PyThread_release_lock(ptr noundef %33)
  store i32 0, ptr %4, align 4
  store i32 1, ptr %10, align 4
  br label %34

34:                                               ; preds = %26, %22
  call void @llvm.lifetime.end.p0(i64 8, ptr %9) #8
  call void @llvm.lifetime.end.p0(i64 8, ptr %8) #8
  %35 = load i32, ptr %4, align 4
  ret i32 %35
}

; Function Attrs: nounwind uwtable
define internal i32 @queue_destroy(ptr noundef %0, i64 noundef %1) #0 {
  %3 = alloca i32, align 4
  %4 = alloca ptr, align 8
  %5 = alloca i64, align 8
  %6 = alloca ptr, align 8
  %7 = alloca i32, align 4
  %8 = alloca i32, align 4
  store ptr %0, ptr %4, align 8, !tbaa !39
  store i64 %1, ptr %5, align 8, !tbaa !11
  call void @llvm.lifetime.start.p0(i64 8, ptr %6) #8
  store ptr null, ptr %6, align 8, !tbaa !26
  call void @llvm.lifetime.start.p0(i64 4, ptr %7) #8
  %9 = load ptr, ptr %4, align 8, !tbaa !39
  %10 = load i64, ptr %5, align 8, !tbaa !11
  %11 = call i32 @_queues_remove(ptr noundef %9, i64 noundef %10, ptr noundef %6)
  store i32 %11, ptr %7, align 4, !tbaa !9
  %12 = load i32, ptr %7, align 4, !tbaa !9
  %13 = icmp slt i32 %12, 0
  br i1 %13, label %14, label %16

14:                                               ; preds = %2
  %15 = load i32, ptr %7, align 4, !tbaa !9
  store i32 %15, ptr %3, align 4
  store i32 1, ptr %8, align 4
  br label %19

16:                                               ; preds = %2
  %17 = load ptr, ptr %6, align 8, !tbaa !26
  call void @_queue_kill_and_wait(ptr noundef %17)
  %18 = load ptr, ptr %6, align 8, !tbaa !26
  call void @_queue_free(ptr noundef %18)
  store i32 0, ptr %3, align 4
  store i32 1, ptr %8, align 4
  br label %19

19:                                               ; preds = %16, %14
  call void @llvm.lifetime.end.p0(i64 4, ptr %7) #8
  call void @llvm.lifetime.end.p0(i64 8, ptr %6) #8
  %20 = load i32, ptr %3, align 4
  ret i32 %20
}