; Function Attrs: nounwind uwtable
define internal fastcc range(i32 -14, 1) i32 @queue_destroy(i64 noundef %0) unnamed_addr #0 {
  %2 = load ptr, ptr getelementptr inbounds nuw (i8, ptr @_globals, i64 8), align 8, !tbaa !20
  %3 = tail call i32 @PyThread_acquire_lock(ptr noundef %2, i32 noundef 1) #6
  %4 = load ptr, ptr getelementptr inbounds nuw (i8, ptr @_globals, i64 16), align 8, !tbaa !39
  %.not12.i.i = icmp eq ptr %4, null
  br i1 %.not12.i.i, label %_queues_remove.exit.thread, label %.lr.ph.i.preheader.i

.lr.ph.i.preheader.i:                             ; preds = %1
  %5 = getelementptr inbounds nuw i8, ptr %4, i64 8
  %6 = load i64, ptr %5, align 8, !tbaa !46
  %7 = icmp eq i64 %6, %0
  br i1 %7, label %_queuerefs_find.exit.thread.i, label %.lr.ph.i

_queuerefs_find.exit.thread.i:                    ; preds = %.lr.ph.i.preheader.i
  %8 = load ptr, ptr %4, align 8, !tbaa !40
  br label %15

.lr.ph.i.i:                                       ; preds = %.lr.ph.i
  %9 = getelementptr inbounds nuw i8, ptr %12, i64 8
  %10 = load i64, ptr %9, align 8, !tbaa !46
  %11 = icmp eq i64 %10, %0
  br i1 %11, label %_queuerefs_find.exit.i, label %.lr.ph.i, !llvm.loop !62

.lr.ph.i:                                         ; preds = %.lr.ph.i.preheader.i, %.lr.ph.i.i
  %.014.i5.i = phi ptr [ %12, %.lr.ph.i.i ], [ %4, %.lr.ph.i.preheader.i ]
  %12 = load ptr, ptr %.014.i5.i, align 8, !tbaa !40
  %.not.i.i = icmp eq ptr %12, null
  br i1 %.not.i.i, label %_queues_remove.exit.thread, label %.lr.ph.i.i, !llvm.loop !62

_queuerefs_find.exit.i:                           ; preds = %.lr.ph.i.i
  %13 = icmp eq ptr %12, %4
  %14 = load ptr, ptr %12, align 8, !tbaa !40
  br i1 %13, label %15, label %17

15:                                               ; preds = %_queuerefs_find.exit.i, %_queuerefs_find.exit.thread.i
  %16 = phi ptr [ %8, %_queuerefs_find.exit.thread.i ], [ %14, %_queuerefs_find.exit.i ]
  %.014.i.lcssa12.i = phi ptr [ %4, %_queuerefs_find.exit.thread.i ], [ %12, %_queuerefs_find.exit.i ]
  store ptr %16, ptr getelementptr inbounds nuw (i8, ptr @_globals, i64 16), align 8, !tbaa !39
  br label %19

17:                                               ; preds = %_queuerefs_find.exit.i
  store ptr %14, ptr %.014.i5.i, align 8, !tbaa !40
  br label %19

_queues_remove.exit.thread:                       ; preds = %.lr.ph.i, %1
  %18 = load ptr, ptr getelementptr inbounds nuw (i8, ptr @_globals, i64 8), align 8, !tbaa !20
  tail call void @PyThread_release_lock(ptr noundef %18) #6
  br label %47

19:                                               ; preds = %17, %15
  %.014.i.lcssa11.i = phi ptr [ %.014.i.lcssa12.i, %15 ], [ %12, %17 ]
  store ptr null, ptr %.014.i.lcssa11.i, align 8, !tbaa !40
  %20 = load i64, ptr getelementptr inbounds nuw (i8, ptr @_globals, i64 24), align 8, !tbaa !42
  %21 = add i64 %20, -1
  store i64 %21, ptr getelementptr inbounds nuw (i8, ptr @_globals, i64 24), align 8, !tbaa !42
  %22 = getelementptr inbounds nuw i8, ptr %.014.i.lcssa11.i, i64 24
  %23 = load ptr, ptr %22, align 8, !tbaa !49
  store ptr null, ptr %22, align 8, !tbaa !49
  tail call void @PyMem_RawFree(ptr noundef nonnull %.014.i.lcssa11.i) #6
  %24 = load ptr, ptr getelementptr inbounds nuw (i8, ptr @_globals, i64 8), align 8, !tbaa !20
  tail call void @PyThread_release_lock(ptr noundef %24) #6
  %25 = getelementptr inbounds nuw i8, ptr %23, i64 8
  %26 = load ptr, ptr %25, align 8, !tbaa !35
  %27 = tail call i32 @PyThread_acquire_lock(ptr noundef %26, i32 noundef 1) #6
  %28 = getelementptr inbounds nuw i8, ptr %23, i64 16
  store i32 0, ptr %28, align 8, !tbaa !64
  %29 = load ptr, ptr %25, align 8, !tbaa !35
  tail call void @PyThread_release_lock(ptr noundef %29) #6
  %30 = load i64, ptr %23, align 8, !tbaa !63
  %31 = icmp sgt i64 %30, 0
  br i1 %31, label %.lr.ph.i5, label %_queue_kill_and_wait.exit

.lr.ph.i5:                                        ; preds = %19, %.lr.ph.i5
  %32 = load ptr, ptr %25, align 8, !tbaa !35
  %33 = tail call i32 @PyThread_acquire_lock(ptr noundef %32, i32 noundef 1) #6
  %34 = load ptr, ptr %25, align 8, !tbaa !35
  tail call void @PyThread_release_lock(ptr noundef %34) #6
  %35 = load i64, ptr %23, align 8, !tbaa !63
  %36 = icmp sgt i64 %35, 0
  br i1 %36, label %.lr.ph.i5, label %_queue_kill_and_wait.exit, !llvm.loop !86

_queue_kill_and_wait.exit:                        ; preds = %.lr.ph.i5, %19
  %37 = getelementptr inbounds nuw i8, ptr %23, i64 40
  %38 = load ptr, ptr %37, align 8, !tbaa !24
  %.not4.i.i.i = icmp eq ptr %38, null
  br i1 %.not4.i.i.i, label %_queue_free.exit, label %.lr.ph.i.i.i

.lr.ph.i.i.i:                                     ; preds = %_queue_kill_and_wait.exit, %_queueitem_free.exit.i.i.i
  %.05.i.i.i = phi ptr [ %40, %_queueitem_free.exit.i.i.i ], [ %38, %_queue_kill_and_wait.exit ]
  %39 = getelementptr inbounds nuw i8, ptr %.05.i.i.i, i64 24
  %40 = load ptr, ptr %39, align 8, !tbaa !29
  store ptr null, ptr %39, align 8, !tbaa !29
  %41 = getelementptr inbounds nuw i8, ptr %.05.i.i.i, i64 8
  %42 = load ptr, ptr %41, align 8, !tbaa !32
  %43 = icmp eq ptr %42, null
  br i1 %43, label %_queueitem_free.exit.i.i.i, label %44

44:                                               ; preds = %.lr.ph.i.i.i
  %45 = tail call i32 @_PyXIData_Release(ptr noundef nonnull %42) #6
  store ptr null, ptr %41, align 8, !tbaa !32
  br label %_queueitem_free.exit.i.i.i

_queueitem_free.exit.i.i.i:                       ; preds = %44, %.lr.ph.i.i.i
  tail call void @PyMem_RawFree(ptr noundef nonnull %.05.i.i.i) #6
  %.not.i.i.i = icmp eq ptr %40, null
  br i1 %.not.i.i.i, label %_queue_free.exit, label %.lr.ph.i.i.i, !llvm.loop !33

_queue_free.exit:                                 ; preds = %_queueitem_free.exit.i.i.i, %_queue_kill_and_wait.exit
  %46 = load ptr, ptr %25, align 8, !tbaa !35
  tail call void @PyThread_free_lock(ptr noundef %46) #6
  tail call void @llvm.memset.p0.i64(ptr noundef nonnull align 8 dereferenceable(64) %23, i8 0, i64 64, i1 false)
  tail call void @PyMem_RawFree(ptr noundef nonnull %23) #6
  br label %47

47:                                               ; preds = %_queues_remove.exit.thread, %_queue_free.exit
  %.0 = phi i32 [ 0, %_queue_free.exit ], [ -14, %_queues_remove.exit.thread ]
  ret i32 %.0
}